ARM GAS  C:\Users\simhj\AppData\Local\Temp\cc4h7uT1.s 			page 1


   1              		.syntax unified
   2              		.cpu cortex-m3
   3              		.fpu softvfp
   4              		.eabi_attribute 20, 1
   5              		.eabi_attribute 21, 1
   6              		.eabi_attribute 23, 3
   7              		.eabi_attribute 24, 1
   8              		.eabi_attribute 25, 1
   9              		.eabi_attribute 26, 1
  10              		.eabi_attribute 30, 1
  11              		.eabi_attribute 34, 1
  12              		.eabi_attribute 18, 4
  13              		.thumb
  14              		.syntax unified
  15              		.file	"main.c"
  16              		.text
  17              	.Ltext0:
  18              		.cfi_sections	.debug_frame
  19              		.section	.text.UART_Rx_CT_Handeler,"ax",%progbits
  20              		.align	2
  21              		.global	UART_Rx_CT_Handeler
  22              		.thumb
  23              		.thumb_func
  24              		.type	UART_Rx_CT_Handeler, %function
  25              	UART_Rx_CT_Handeler:
  26              	.LFB64:
  27              		.file 1 "main.c"
   1:main.c        **** /* ========================================
   2:main.c        ****  *
   3:main.c        ****  * Copyright YOUR COMPANY, THE YEAR
   4:main.c        ****  * All Rights Reserved
   5:main.c        ****  * UNPUBLISHED, LICENSED SOFTWARE.
   6:main.c        ****  *
   7:main.c        ****  * CONFIDENTIAL AND PROPRIETARY INFORMATION
   8:main.c        ****  * WHICH IS THE PROPERTY OF your company.
   9:main.c        ****  *
  10:main.c        ****  * ========================================
  11:main.c        **** */
  12:main.c        **** #include "project.h"
  13:main.c        **** #include <stdint.h>
  14:main.c        **** #include <stdbool.h>
  15:main.c        **** #include "CustomPrint.h"
  16:main.c        **** 
  17:main.c        **** // Global variables
  18:main.c        **** uint8_t DataToSend;
  19:main.c        **** uint8_t DataReceived;
  20:main.c        **** 
  21:main.c        **** // Interrupt service rutines prototypes 
  22:main.c        **** CY_ISR_PROTO (UART_Rx_CT_Handeler);
  23:main.c        **** 
  24:main.c        **** CY_ISR_PROTO (SPI_Rx_Handler);
  25:main.c        **** 
  26:main.c        **** int main(void)
  27:main.c        **** {
  28:main.c        ****     CyGlobalIntEnable; /* Enable global interrupts. */
  29:main.c        ****     UART_CT_Start();
  30:main.c        ****     
ARM GAS  C:\Users\simhj\AppData\Local\Temp\cc4h7uT1.s 			page 2


  31:main.c        ****     isr_UART_CT_StartEx(UART_Rx_CT_Handeler);
  32:main.c        ****     
  33:main.c        ****     SPI_M_Start();
  34:main.c        ****     isr_SPI_rx_StartEx(SPI_Rx_Handler);
  35:main.c        ****     
  36:main.c        ****     UART_CT_PutString("Program running\r\n");
  37:main.c        ****     //bool btn_isOn = false;
  38:main.c        ****     
  39:main.c        ****     for(;;)
  40:main.c        ****     {
  41:main.c        ****         
  42:main.c        ****         /*DataToReceive = SPI_M_ReadRxData();
  43:main.c        ****         
  44:main.c        ****         if (DataToReceive == 1)
  45:main.c        ****         {
  46:main.c        ****              UART_CT_PutString("Slave SW1 is HIGH\r\n");
  47:main.c        ****         }
  48:main.c        ****         if (DataToReceive == 0)
  49:main.c        ****         {
  50:main.c        ****              UART_CT_PutString("Slave SW1 is LOW\r\n");
  51:main.c        ****         }*/
  52:main.c        ****         
  53:main.c        ****         /*
  54:main.c        ****         // Check buttonstate on slave
  55:main.c        ****         if (!btn_isOn && (DataToReceive))// & (1<<0)))
  56:main.c        ****         {
  57:main.c        ****             UART_CT_PutString("ButtonState: HIGH\r\n");
  58:main.c        ****             btn_isOn = true;
  59:main.c        ****         }
  60:main.c        ****         if (btn_isOn && !(DataToReceive))// & (1<<0)))
  61:main.c        ****         {
  62:main.c        ****             UART_CT_PutString("ButtonState: LOW\r\n");
  63:main.c        ****             btn_isOn = false;
  64:main.c        ****         }
  65:main.c        ****         */
  66:main.c        ****     }
  67:main.c        **** }
  68:main.c        **** 
  69:main.c        **** // Interrupt services rutines 
  70:main.c        **** CY_ISR (UART_Rx_CT_Handeler)
  71:main.c        **** {
  28              		.loc 1 71 0
  29              		.cfi_startproc
  30              		@ args = 0, pretend = 0, frame = 0
  31              		@ frame_needed = 0, uses_anonymous_args = 0
  32 0000 70B5     		push	{r4, r5, r6, lr}
  33              		.cfi_def_cfa_offset 16
  34              		.cfi_offset 4, -16
  35              		.cfi_offset 5, -12
  36              		.cfi_offset 6, -8
  37              		.cfi_offset 14, -4
  72:main.c        ****     uint8_t numberOfBytes = UART_CT_GetRxBufferSize();
  38              		.loc 1 72 0
  39 0002 FFF7FEFF 		bl	UART_CT_GetRxBufferSize
  40              	.LVL0:
  41 0006 0646     		mov	r6, r0
  42              	.LVL1:
ARM GAS  C:\Users\simhj\AppData\Local\Temp\cc4h7uT1.s 			page 3


  43              	.LBB2:
  73:main.c        ****     
  74:main.c        ****     for (uint8_t i = 0; i < numberOfBytes; i++)
  44              		.loc 1 74 0
  45 0008 0024     		movs	r4, #0
  46 000a 0EE0     		b	.L2
  47              	.LVL2:
  48              	.L3:
  49              	.LBB3:
  75:main.c        ****     {
  76:main.c        ****         char c = UART_CT_GetChar();
  50              		.loc 1 76 0 discriminator 3
  51 000c FFF7FEFF 		bl	UART_CT_GetChar
  52              	.LVL3:
  53 0010 0546     		mov	r5, r0
  54              	.LVL4:
  77:main.c        ****         
  78:main.c        ****         UART_CT_PutChar(c);
  55              		.loc 1 78 0 discriminator 3
  56 0012 FFF7FEFF 		bl	UART_CT_PutChar
  57              	.LVL5:
  79:main.c        ****         UART_CT_PutString("\r\n");
  58              		.loc 1 79 0 discriminator 3
  59 0016 0648     		ldr	r0, .L5
  60 0018 FFF7FEFF 		bl	UART_CT_PutString
  61              	.LVL6:
  80:main.c        ****         
  81:main.c        ****         DataToSend = c; 
  62              		.loc 1 81 0 discriminator 3
  63 001c 054B     		ldr	r3, .L5+4
  64 001e 1D70     		strb	r5, [r3]
  82:main.c        ****         SPI_M_WriteTxData(DataToSend);
  65              		.loc 1 82 0 discriminator 3
  66 0020 2846     		mov	r0, r5
  67 0022 FFF7FEFF 		bl	SPI_M_WriteTxData
  68              	.LVL7:
  69              	.LBE3:
  74:main.c        ****     {
  70              		.loc 1 74 0 discriminator 3
  71 0026 0134     		adds	r4, r4, #1
  72              	.LVL8:
  73 0028 E4B2     		uxtb	r4, r4
  74              	.LVL9:
  75              	.L2:
  74:main.c        ****     {
  76              		.loc 1 74 0 is_stmt 0 discriminator 1
  77 002a B442     		cmp	r4, r6
  78 002c EED3     		bcc	.L3
  79              	.LBE2:
  83:main.c        ****        
  84:main.c        ****     }
  85:main.c        **** } // end of uart handler
  80              		.loc 1 85 0 is_stmt 1
  81 002e 70BD     		pop	{r4, r5, r6, pc}
  82              	.LVL10:
  83              	.L6:
  84              		.align	2
ARM GAS  C:\Users\simhj\AppData\Local\Temp\cc4h7uT1.s 			page 4


  85              	.L5:
  86 0030 00000000 		.word	.LC0
  87 0034 00000000 		.word	DataToSend
  88              		.cfi_endproc
  89              	.LFE64:
  90              		.size	UART_Rx_CT_Handeler, .-UART_Rx_CT_Handeler
  91              		.section	.text.SPI_Rx_Handler,"ax",%progbits
  92              		.align	2
  93              		.global	SPI_Rx_Handler
  94              		.thumb
  95              		.thumb_func
  96              		.type	SPI_Rx_Handler, %function
  97              	SPI_Rx_Handler:
  98              	.LFB65:
  86:main.c        **** 
  87:main.c        **** CY_ISR (SPI_Rx_Handler)
  88:main.c        **** {
  99              		.loc 1 88 0
 100              		.cfi_startproc
 101              		@ args = 0, pretend = 0, frame = 0
 102              		@ frame_needed = 0, uses_anonymous_args = 0
 103 0000 08B5     		push	{r3, lr}
 104              		.cfi_def_cfa_offset 8
 105              		.cfi_offset 3, -8
 106              		.cfi_offset 14, -4
  89:main.c        ****     DataReceived = SPI_M_ReadRxData();
 107              		.loc 1 89 0
 108 0002 FFF7FEFF 		bl	SPI_M_ReadRxData
 109              	.LVL11:
 110 0006 024B     		ldr	r3, .L9
 111 0008 1870     		strb	r0, [r3]
  90:main.c        ****     UART_CT_PutChar(DataReceived);
 112              		.loc 1 90 0
 113 000a FFF7FEFF 		bl	UART_CT_PutChar
 114              	.LVL12:
 115 000e 08BD     		pop	{r3, pc}
 116              	.L10:
 117              		.align	2
 118              	.L9:
 119 0010 00000000 		.word	DataReceived
 120              		.cfi_endproc
 121              	.LFE65:
 122              		.size	SPI_Rx_Handler, .-SPI_Rx_Handler
 123              		.section	.text.main,"ax",%progbits
 124              		.align	2
 125              		.global	main
 126              		.thumb
 127              		.thumb_func
 128              		.type	main, %function
 129              	main:
 130              	.LFB63:
  27:main.c        ****     CyGlobalIntEnable; /* Enable global interrupts. */
 131              		.loc 1 27 0
 132              		.cfi_startproc
 133              		@ Volatile: function does not return.
 134              		@ args = 0, pretend = 0, frame = 0
 135              		@ frame_needed = 0, uses_anonymous_args = 0
ARM GAS  C:\Users\simhj\AppData\Local\Temp\cc4h7uT1.s 			page 5


 136 0000 08B5     		push	{r3, lr}
 137              		.cfi_def_cfa_offset 8
 138              		.cfi_offset 3, -8
 139              		.cfi_offset 14, -4
  28:main.c        ****     UART_CT_Start();
 140              		.loc 1 28 0
 141              		.syntax unified
 142              	@ 28 "main.c" 1
 143 0002 62B6     		CPSIE   i
 144              	@ 0 "" 2
  29:main.c        ****     
 145              		.loc 1 29 0
 146              		.thumb
 147              		.syntax unified
 148 0004 FFF7FEFF 		bl	UART_CT_Start
 149              	.LVL13:
  31:main.c        ****     
 150              		.loc 1 31 0
 151 0008 0548     		ldr	r0, .L14
 152 000a FFF7FEFF 		bl	isr_UART_CT_StartEx
 153              	.LVL14:
  33:main.c        ****     isr_SPI_rx_StartEx(SPI_Rx_Handler);
 154              		.loc 1 33 0
 155 000e FFF7FEFF 		bl	SPI_M_Start
 156              	.LVL15:
  34:main.c        ****     
 157              		.loc 1 34 0
 158 0012 0448     		ldr	r0, .L14+4
 159 0014 FFF7FEFF 		bl	isr_SPI_rx_StartEx
 160              	.LVL16:
  36:main.c        ****     //bool btn_isOn = false;
 161              		.loc 1 36 0
 162 0018 0348     		ldr	r0, .L14+8
 163 001a FFF7FEFF 		bl	UART_CT_PutString
 164              	.LVL17:
 165              	.L12:
 166 001e FEE7     		b	.L12
 167              	.L15:
 168              		.align	2
 169              	.L14:
 170 0020 00000000 		.word	UART_Rx_CT_Handeler
 171 0024 00000000 		.word	SPI_Rx_Handler
 172 0028 04000000 		.word	.LC1
 173              		.cfi_endproc
 174              	.LFE63:
 175              		.size	main, .-main
 176              		.comm	DataReceived,1,1
 177              		.comm	DataToSend,1,1
 178              		.section	.rodata.str1.4,"aMS",%progbits,1
 179              		.align	2
 180              	.LC0:
 181 0000 0D0A00   		.ascii	"\015\012\000"
 182 0003 00       		.space	1
 183              	.LC1:
 184 0004 50726F67 		.ascii	"Program running\015\012\000"
 184      72616D20 
 184      72756E6E 
ARM GAS  C:\Users\simhj\AppData\Local\Temp\cc4h7uT1.s 			page 6


 184      696E670D 
 184      0A00
 185              		.text
 186              	.Letext0:
 187              		.file 2 "s:\\program files (x86)\\cypress\\psoc creator\\4.4\\psoc creator\\import\\gnu\\arm\\5.4.
 188              		.file 3 "s:\\program files (x86)\\cypress\\psoc creator\\4.4\\psoc creator\\import\\gnu\\arm\\5.4.
 189              		.file 4 "Generated_Source\\PSoC5/core_cm3.h"
 190              		.file 5 "Generated_Source\\PSoC5/UART_CT.h"
 191              		.file 6 "Generated_Source\\PSoC5/SPI_M.h"
 192              		.file 7 "Generated_Source\\PSoC5/isr_UART_CT.h"
 193              		.file 8 "Generated_Source\\PSoC5/isr_SPI_rx.h"