ARM GAS  C:\Users\mathias\AppData\Local\Temp\cczQ5Eps.s 			page 1


   1              		.syntax unified
   2              		.cpu cortex-m3
   3              		.fpu softvfp
   4              		.eabi_attribute 20, 1
   5              		.eabi_attribute 21, 1
   6              		.eabi_attribute 23, 3
   7              		.eabi_attribute 24, 1
   8              		.eabi_attribute 25, 1
   9              		.eabi_attribute 26, 1
  10              		.eabi_attribute 30, 1
  11              		.eabi_attribute 34, 1
  12              		.eabi_attribute 18, 4
  13              		.thumb
  14              		.syntax unified
  15              		.file	"CustomPrint.c"
  16              		.text
  17              	.Ltext0:
  18              		.cfi_sections	.debug_frame
  19              		.section	.text.PrintStringInt,"ax",%progbits
  20              		.align	2
  21              		.global	PrintStringInt
  22              		.thumb
  23              		.thumb_func
  24              		.type	PrintStringInt, %function
  25              	PrintStringInt:
  26              	.LFB64:
  27              		.file 1 "CustomPrint.c"
   1:CustomPrint.c **** /* ========================================
   2:CustomPrint.c ****  *
   3:CustomPrint.c ****  * Copyright YOUR COMPANY, THE YEAR
   4:CustomPrint.c ****  * All Rights Reserved
   5:CustomPrint.c ****  * UNPUBLISHED, LICENSED SOFTWARE.
   6:CustomPrint.c ****  *
   7:CustomPrint.c ****  * CONFIDENTIAL AND PROPRIETARY INFORMATION
   8:CustomPrint.c ****  * WHICH IS THE PROPERTY OF your company.
   9:CustomPrint.c ****  *
  10:CustomPrint.c ****  * ========================================
  11:CustomPrint.c **** */
  12:CustomPrint.c **** 
  13:CustomPrint.c **** 
  14:CustomPrint.c **** #include <stdint.h>
  15:CustomPrint.c **** #include "project.h"
  16:CustomPrint.c **** #include "CustomPrint.h"
  17:CustomPrint.c **** #include <stdio.h>
  18:CustomPrint.c **** 
  19:CustomPrint.c ****     //prints a sring followed by a interger number 
  20:CustomPrint.c **** void PrintStringInt(char str[], uint8_t len, uint8_t num)
  21:CustomPrint.c **** {
  28              		.loc 1 21 0
  29              		.cfi_startproc
  30              		@ args = 0, pretend = 0, frame = 520
  31              		@ frame_needed = 0, uses_anonymous_args = 0
  32              	.LVL0:
  33 0000 F0B5     		push	{r4, r5, r6, r7, lr}
  34              		.cfi_def_cfa_offset 20
  35              		.cfi_offset 4, -20
  36              		.cfi_offset 5, -16
ARM GAS  C:\Users\mathias\AppData\Local\Temp\cczQ5Eps.s 			page 2


  37              		.cfi_offset 6, -12
  38              		.cfi_offset 7, -8
  39              		.cfi_offset 14, -4
  40 0002 ADF5037D 		sub	sp, sp, #524
  41              		.cfi_def_cfa_offset 544
  42 0006 0646     		mov	r6, r0
  43 0008 0D46     		mov	r5, r1
  44 000a 1746     		mov	r7, r2
  22:CustomPrint.c **** 	char buffer[255], string[255] = { "" }, conchar[8] = { ": %d\r\n" };
  45              		.loc 1 22 0
  46 000c 0024     		movs	r4, #0
  47 000e 0294     		str	r4, [sp, #8]
  48 0010 FB22     		movs	r2, #251
  49              	.LVL1:
  50 0012 2146     		mov	r1, r4
  51              	.LVL2:
  52 0014 03A8     		add	r0, sp, #12
  53              	.LVL3:
  54 0016 FFF7FEFF 		bl	memset
  55              	.LVL4:
  56 001a 164A     		ldr	r2, .L7
  57 001c 92E80300 		ldmia	r2, {r0, r1}
  58 0020 0090     		str	r0, [sp]
  59 0022 ADF80410 		strh	r1, [sp, #4]	@ movhi
  60 0026 090C     		lsrs	r1, r1, #16
  61 0028 8DF80610 		strb	r1, [sp, #6]
  62 002c 8DF80740 		strb	r4, [sp, #7]
  63              	.LVL5:
  23:CustomPrint.c **** 	uint8_t i = 0; 
  24:CustomPrint.c **** 	for (i = 0; i < len; i++)
  64              		.loc 1 24 0
  65 0030 2146     		mov	r1, r4
  66 0032 04E0     		b	.L2
  67              	.LVL6:
  68              	.L3:
  25:CustomPrint.c **** 	{
  26:CustomPrint.c **** 		string[i] = str[i]; 
  69              		.loc 1 26 0 discriminator 3
  70 0034 725C     		ldrb	r2, [r6, r1]	@ zero_extendqisi2
  71 0036 02AB     		add	r3, sp, #8
  72 0038 5A54     		strb	r2, [r3, r1]
  24:CustomPrint.c **** 	{
  73              		.loc 1 24 0 discriminator 3
  74 003a 0131     		adds	r1, r1, #1
  75              	.LVL7:
  76 003c C9B2     		uxtb	r1, r1
  77              	.LVL8:
  78              	.L2:
  24:CustomPrint.c **** 	{
  79              		.loc 1 24 0 is_stmt 0 discriminator 1
  80 003e A942     		cmp	r1, r5
  81 0040 F8D3     		bcc	.L3
  82 0042 2B46     		mov	r3, r5
  83 0044 06E0     		b	.L4
  84              	.LVL9:
  85              	.L5:
  27:CustomPrint.c **** 	}
ARM GAS  C:\Users\mathias\AppData\Local\Temp\cczQ5Eps.s 			page 3


  28:CustomPrint.c **** 	for (i = len; i < len+8; i++)
  29:CustomPrint.c **** 	{
  30:CustomPrint.c **** 
  31:CustomPrint.c **** 		string[i] = conchar[i-len];
  86              		.loc 1 31 0 is_stmt 1 discriminator 3
  87 0046 5A1B     		subs	r2, r3, r5
  88 0048 1DF80210 		ldrb	r1, [sp, r2]	@ zero_extendqisi2
  89 004c 02AA     		add	r2, sp, #8
  90 004e D154     		strb	r1, [r2, r3]
  28:CustomPrint.c **** 	{
  91              		.loc 1 28 0 discriminator 3
  92 0050 0133     		adds	r3, r3, #1
  93              	.LVL10:
  94 0052 DBB2     		uxtb	r3, r3
  95              	.LVL11:
  96              	.L4:
  28:CustomPrint.c **** 	{
  97              		.loc 1 28 0 is_stmt 0 discriminator 1
  98 0054 05F10802 		add	r2, r5, #8
  99 0058 9342     		cmp	r3, r2
 100 005a F4DB     		blt	.L5
  32:CustomPrint.c **** 	}
  33:CustomPrint.c **** 	snprintf(buffer, sizeof(buffer), string, num);
 101              		.loc 1 33 0 is_stmt 1
 102 005c 3B46     		mov	r3, r7
 103              	.LVL12:
 104 005e 02AA     		add	r2, sp, #8
 105 0060 FF21     		movs	r1, #255
 106 0062 42A8     		add	r0, sp, #264
 107 0064 FFF7FEFF 		bl	snprintf
 108              	.LVL13:
  34:CustomPrint.c ****     
  35:CustomPrint.c ****     UART_CT_PutString(buffer);
 109              		.loc 1 35 0
 110 0068 42A8     		add	r0, sp, #264
 111 006a FFF7FEFF 		bl	UART_CT_PutString
 112              	.LVL14:
  36:CustomPrint.c **** return;
  37:CustomPrint.c **** }
 113              		.loc 1 37 0
 114 006e 0DF5037D 		add	sp, sp, #524
 115              		.cfi_def_cfa_offset 20
 116              		@ sp needed
 117 0072 F0BD     		pop	{r4, r5, r6, r7, pc}
 118              	.LVL15:
 119              	.L8:
 120              		.align	2
 121              	.L7:
 122 0074 00000000 		.word	.LANCHOR0
 123              		.cfi_endproc
 124              	.LFE64:
 125              		.size	PrintStringInt, .-PrintStringInt
 126              		.global	__aeabi_f2d
 127              		.section	.text.PrintStringFloat,"ax",%progbits
 128              		.align	2
 129              		.global	PrintStringFloat
 130              		.thumb
ARM GAS  C:\Users\mathias\AppData\Local\Temp\cczQ5Eps.s 			page 4


 131              		.thumb_func
 132              		.type	PrintStringFloat, %function
 133              	PrintStringFloat:
 134              	.LFB65:
  38:CustomPrint.c **** 
  39:CustomPrint.c ****     //prints a string followed by a float type number
  40:CustomPrint.c **** void PrintStringFloat(char str[], uint8_t len, float num)
  41:CustomPrint.c **** {
 135              		.loc 1 41 0
 136              		.cfi_startproc
 137              		@ args = 0, pretend = 0, frame = 520
 138              		@ frame_needed = 0, uses_anonymous_args = 0
 139              	.LVL16:
 140 0000 F0B5     		push	{r4, r5, r6, r7, lr}
 141              		.cfi_def_cfa_offset 20
 142              		.cfi_offset 4, -20
 143              		.cfi_offset 5, -16
 144              		.cfi_offset 6, -12
 145              		.cfi_offset 7, -8
 146              		.cfi_offset 14, -4
 147 0002 ADF5057D 		sub	sp, sp, #532
 148              		.cfi_def_cfa_offset 552
 149 0006 0646     		mov	r6, r0
 150 0008 0D46     		mov	r5, r1
 151 000a 1746     		mov	r7, r2
  42:CustomPrint.c ****     
  43:CustomPrint.c **** 	char buffer[255], string[255] = { "" }, conchar[8] = { ": %f\r\n" };
 152              		.loc 1 43 0
 153 000c 0024     		movs	r4, #0
 154 000e 0494     		str	r4, [sp, #16]
 155 0010 FB22     		movs	r2, #251
 156              	.LVL17:
 157 0012 2146     		mov	r1, r4
 158              	.LVL18:
 159 0014 05A8     		add	r0, sp, #20
 160              	.LVL19:
 161 0016 FFF7FEFF 		bl	memset
 162              	.LVL20:
 163 001a 184B     		ldr	r3, .L15
 164 001c 93E80300 		ldmia	r3, {r0, r1}
 165 0020 0290     		str	r0, [sp, #8]
 166 0022 ADF80C10 		strh	r1, [sp, #12]	@ movhi
 167 0026 090C     		lsrs	r1, r1, #16
 168 0028 8DF80E10 		strb	r1, [sp, #14]
 169 002c 8DF80F40 		strb	r4, [sp, #15]
 170              	.LVL21:
  44:CustomPrint.c **** 	uint8_t i = 0; 
  45:CustomPrint.c **** 	for (i = 0; i < len; i++)
 171              		.loc 1 45 0
 172 0030 2146     		mov	r1, r4
 173 0032 04E0     		b	.L10
 174              	.LVL22:
 175              	.L11:
  46:CustomPrint.c **** 	{
  47:CustomPrint.c **** 		string[i] = str[i]; 
 176              		.loc 1 47 0 discriminator 3
 177 0034 725C     		ldrb	r2, [r6, r1]	@ zero_extendqisi2
ARM GAS  C:\Users\mathias\AppData\Local\Temp\cczQ5Eps.s 			page 5


 178 0036 04AB     		add	r3, sp, #16
 179 0038 5A54     		strb	r2, [r3, r1]
  45:CustomPrint.c **** 	{
 180              		.loc 1 45 0 discriminator 3
 181 003a 0131     		adds	r1, r1, #1
 182              	.LVL23:
 183 003c C9B2     		uxtb	r1, r1
 184              	.LVL24:
 185              	.L10:
  45:CustomPrint.c **** 	{
 186              		.loc 1 45 0 is_stmt 0 discriminator 1
 187 003e A942     		cmp	r1, r5
 188 0040 F8D3     		bcc	.L11
 189 0042 2B46     		mov	r3, r5
 190 0044 06E0     		b	.L12
 191              	.LVL25:
 192              	.L13:
  48:CustomPrint.c **** 	}
  49:CustomPrint.c **** 	for (i = len; i < len+8; i++)
  50:CustomPrint.c **** 	{
  51:CustomPrint.c **** 
  52:CustomPrint.c **** 		string[i] = conchar[i-len];
 193              		.loc 1 52 0 is_stmt 1 discriminator 3
 194 0046 5A1B     		subs	r2, r3, r5
 195 0048 02A9     		add	r1, sp, #8
 196 004a 895C     		ldrb	r1, [r1, r2]	@ zero_extendqisi2
 197 004c 04AA     		add	r2, sp, #16
 198 004e D154     		strb	r1, [r2, r3]
  49:CustomPrint.c **** 	{
 199              		.loc 1 49 0 discriminator 3
 200 0050 0133     		adds	r3, r3, #1
 201              	.LVL26:
 202 0052 DBB2     		uxtb	r3, r3
 203              	.LVL27:
 204              	.L12:
  49:CustomPrint.c **** 	{
 205              		.loc 1 49 0 is_stmt 0 discriminator 1
 206 0054 05F10802 		add	r2, r5, #8
 207 0058 9342     		cmp	r3, r2
 208 005a F4DB     		blt	.L13
  53:CustomPrint.c **** 	}
  54:CustomPrint.c **** 	snprintf(buffer, sizeof(buffer), string, num);
 209              		.loc 1 54 0 is_stmt 1
 210 005c 3846     		mov	r0, r7
 211 005e FFF7FEFF 		bl	__aeabi_f2d
 212              	.LVL28:
 213 0062 CDE90001 		strd	r0, [sp]
 214 0066 04AA     		add	r2, sp, #16
 215 0068 FF21     		movs	r1, #255
 216 006a 44A8     		add	r0, sp, #272
 217 006c FFF7FEFF 		bl	snprintf
 218              	.LVL29:
  55:CustomPrint.c ****     
  56:CustomPrint.c ****     UART_CT_PutString(buffer);
 219              		.loc 1 56 0
 220 0070 44A8     		add	r0, sp, #272
 221 0072 FFF7FEFF 		bl	UART_CT_PutString
ARM GAS  C:\Users\mathias\AppData\Local\Temp\cczQ5Eps.s 			page 6


 222              	.LVL30:
  57:CustomPrint.c ****     return;   
  58:CustomPrint.c **** }
 223              		.loc 1 58 0
 224 0076 0DF5057D 		add	sp, sp, #532
 225              		.cfi_def_cfa_offset 20
 226              		@ sp needed
 227 007a F0BD     		pop	{r4, r5, r6, r7, pc}
 228              	.LVL31:
 229              	.L16:
 230              		.align	2
 231              	.L15:
 232 007c 08000000 		.word	.LANCHOR0+8
 233              		.cfi_endproc
 234              	.LFE65:
 235              		.size	PrintStringFloat, .-PrintStringFloat
 236              		.section	.rodata
 237              		.align	2
 238              		.set	.LANCHOR0,. + 0
 239              	.LC0:
 240 0000 3A202564 		.ascii	": %d\015\012\000"
 240      0D0A00
 241 0007 00       		.space	1
 242              	.LC1:
 243 0008 3A202566 		.ascii	": %f\015\012\000"
 243      0D0A00
 244 000f 00       		.space	1
 245              		.text
 246              	.Letext0:
 247              		.file 2 "c:\\program files (x86)\\cypress\\psoc creator\\4.4\\psoc creator\\import\\gnu\\arm\\5.4.
 248              		.file 3 "c:\\program files (x86)\\cypress\\psoc creator\\4.4\\psoc creator\\import\\gnu\\arm\\5.4.
 249              		.file 4 "c:\\program files (x86)\\cypress\\psoc creator\\4.4\\psoc creator\\import\\gnu\\arm\\5.4.
 250              		.file 5 "Generated_Source\\PSoC5/UART_CT.h"
 251              		.file 6 "Generated_Source\\PSoC5/core_cm3.h"