ARM GAS  C:\Users\mathias\AppData\Local\Temp\cc1FjH9d.s 			page 1


   1              		.syntax unified
   2              		.cpu cortex-m3
   3              		.fpu softvfp
   4              		.eabi_attribute 20, 1
   5              		.eabi_attribute 21, 1
   6              		.eabi_attribute 23, 3
   7              		.eabi_attribute 24, 1
   8              		.eabi_attribute 25, 1
   9              		.eabi_attribute 26, 1
  10              		.eabi_attribute 30, 1
  11              		.eabi_attribute 34, 1
  12              		.eabi_attribute 18, 4
  13              		.thumb
  14              		.syntax unified
  15              		.file	"LM75.c"
  16              		.text
  17              	.Ltext0:
  18              		.cfi_sections	.debug_frame
  19              		.section	.text.getTemp,"ax",%progbits
  20              		.align	2
  21              		.global	getTemp
  22              		.thumb
  23              		.thumb_func
  24              		.type	getTemp, %function
  25              	getTemp:
  26              	.LFB63:
  27              		.file 1 "LM75.c"
   1:LM75.c        **** /* ========================================
   2:LM75.c        ****  *
   3:LM75.c        ****  * Copyright YOUR COMPANY, THE YEAR
   4:LM75.c        ****  * All Rights Reserved
   5:LM75.c        ****  * UNPUBLISHED, LICENSED SOFTWARE.
   6:LM75.c        ****  *
   7:LM75.c        ****  * CONFIDENTIAL AND PROPRIETARY INFORMATION
   8:LM75.c        ****  * WHICH IS THE PROPERTY OF your company.
   9:LM75.c        ****  *
  10:LM75.c        ****  * ========================================
  11:LM75.c        **** */
  12:LM75.c        ****     #include <stdint.h>
  13:LM75.c        ****     #include <stdbool.h>
  14:LM75.c        ****     #include "project.h"
  15:LM75.c        ****     #include "CustomPrint.h"
  16:LM75.c        **** 
  17:LM75.c        **** 
  18:LM75.c        **** 
  19:LM75.c        ****     bool getTemp(int16_t *temp, uint8_t slaveAddress)
  20:LM75.c        ****     {
  28              		.loc 1 20 0
  29              		.cfi_startproc
  30              		@ args = 0, pretend = 0, frame = 0
  31              		@ frame_needed = 0, uses_anonymous_args = 0
  32              	.LVL0:
  33 0000 70B5     		push	{r4, r5, r6, lr}
  34              		.cfi_def_cfa_offset 16
  35              		.cfi_offset 4, -16
  36              		.cfi_offset 5, -12
  37              		.cfi_offset 6, -8
ARM GAS  C:\Users\mathias\AppData\Local\Temp\cc1FjH9d.s 			page 2


  38              		.cfi_offset 14, -4
  39 0002 0646     		mov	r6, r0
  40 0004 0846     		mov	r0, r1
  41              	.LVL1:
  21:LM75.c        ****         uint8_t status;
  22:LM75.c        ****         status = I2C_M_MasterSendStart(slaveAddress, 1); 
  42              		.loc 1 22 0
  43 0006 0121     		movs	r1, #1
  44              	.LVL2:
  45 0008 FFF7FEFF 		bl	I2C_M_MasterSendStart
  46              	.LVL3:
  23:LM75.c        ****         if (status == I2C_M_MSTR_NO_ERROR)
  47              		.loc 1 23 0
  48 000c 80B9     		cbnz	r0, .L2
  49              	.LBB2:
  24:LM75.c        ****         {
  25:LM75.c        ****             uint8_t bH = I2C_M_MasterReadByte(I2C_M_ACK_DATA);
  50              		.loc 1 25 0
  51 000e 0120     		movs	r0, #1
  52              	.LVL4:
  53 0010 FFF7FEFF 		bl	I2C_M_MasterReadByte
  54              	.LVL5:
  55 0014 0546     		mov	r5, r0
  56              	.LVL6:
  26:LM75.c        ****             uint8_t bL = I2C_M_MasterReadByte(I2C_M_NAK_DATA);
  57              		.loc 1 26 0
  58 0016 0020     		movs	r0, #0
  59 0018 FFF7FEFF 		bl	I2C_M_MasterReadByte
  60              	.LVL7:
  61 001c 0446     		mov	r4, r0
  62              	.LVL8:
  27:LM75.c        ****             
  28:LM75.c        ****             I2C_M_MasterSendStop();
  63              		.loc 1 28 0
  64 001e FFF7FEFF 		bl	I2C_M_MasterSendStop
  65              	.LVL9:
  29:LM75.c        ****             
  30:LM75.c        ****             if (bH)
  66              		.loc 1 30 0
  67 0022 05B1     		cbz	r5, .L3
  31:LM75.c        ****                 bH = 0xff;
  68              		.loc 1 31 0
  69 0024 FF25     		movs	r5, #255
  70              	.LVL10:
  71              	.L3:
  32:LM75.c        ****             
  33:LM75.c        ****             *temp = ((bH << 8) + bL);
  72              		.loc 1 33 0
  73 0026 04EB0524 		add	r4, r4, r5, lsl #8
  74              	.LVL11:
  75 002a 3480     		strh	r4, [r6]	@ movhi
  34:LM75.c        ****             return true;
  76              		.loc 1 34 0
  77 002c 0120     		movs	r0, #1
  78 002e 70BD     		pop	{r4, r5, r6, pc}
  79              	.LVL12:
  80              	.L2:
ARM GAS  C:\Users\mathias\AppData\Local\Temp\cc1FjH9d.s 			page 3


  81 0030 0246     		mov	r2, r0
  82              	.LBE2:
  35:LM75.c        ****         }
  36:LM75.c        ****         else
  37:LM75.c        ****         {
  38:LM75.c        ****             PrintStringInt("Fejl: ", 9, status);
  83              		.loc 1 38 0
  84 0032 0921     		movs	r1, #9
  85 0034 0348     		ldr	r0, .L7
  86              	.LVL13:
  87 0036 FFF7FEFF 		bl	PrintStringInt
  88              	.LVL14:
  39:LM75.c        ****             I2C_M_MasterSendStop();
  89              		.loc 1 39 0
  90 003a FFF7FEFF 		bl	I2C_M_MasterSendStop
  91              	.LVL15:
  40:LM75.c        ****             return false;
  92              		.loc 1 40 0
  93 003e 0020     		movs	r0, #0
  41:LM75.c        ****         }
  42:LM75.c        ****     }
  94              		.loc 1 42 0
  95 0040 70BD     		pop	{r4, r5, r6, pc}
  96              	.LVL16:
  97              	.L8:
  98 0042 00BF     		.align	2
  99              	.L7:
 100 0044 00000000 		.word	.LC0
 101              		.cfi_endproc
 102              	.LFE63:
 103              		.size	getTemp, .-getTemp
 104              		.global	__aeabi_i2f
 105              		.global	__aeabi_fmul
 106              		.section	.text.convertToCeltius,"ax",%progbits
 107              		.align	2
 108              		.global	convertToCeltius
 109              		.thumb
 110              		.thumb_func
 111              		.type	convertToCeltius, %function
 112              	convertToCeltius:
 113              	.LFB64:
  43:LM75.c        ****     
  44:LM75.c        ****     float convertToCeltius(int16_t temp)
  45:LM75.c        ****     {
 114              		.loc 1 45 0
 115              		.cfi_startproc
 116              		@ args = 0, pretend = 0, frame = 0
 117              		@ frame_needed = 0, uses_anonymous_args = 0
 118              	.LVL17:
 119 0000 08B5     		push	{r3, lr}
 120              		.cfi_def_cfa_offset 8
 121              		.cfi_offset 3, -8
 122              		.cfi_offset 14, -4
  46:LM75.c        ****         return ((float)temp / 2);
 123              		.loc 1 46 0
 124 0002 FFF7FEFF 		bl	__aeabi_i2f
 125              	.LVL18:
ARM GAS  C:\Users\mathias\AppData\Local\Temp\cc1FjH9d.s 			page 4


 126 0006 4FF07C51 		mov	r1, #1056964608
 127 000a FFF7FEFF 		bl	__aeabi_fmul
 128              	.LVL19:
  47:LM75.c        ****     }
 129              		.loc 1 47 0
 130 000e 08BD     		pop	{r3, pc}
 131              		.cfi_endproc
 132              	.LFE64:
 133              		.size	convertToCeltius, .-convertToCeltius
 134              		.section	.rodata.str1.4,"aMS",%progbits,1
 135              		.align	2
 136              	.LC0:
 137 0000 46656A6C 		.ascii	"Fejl: \000"
 137      3A2000
 138              		.text
 139              	.Letext0:
 140              		.file 2 "c:\\program files (x86)\\cypress\\psoc creator\\4.4\\psoc creator\\import\\gnu\\arm\\5.4.
 141              		.file 3 "c:\\program files (x86)\\cypress\\psoc creator\\4.4\\psoc creator\\import\\gnu\\arm\\5.4.
 142              		.file 4 "Generated_Source\\PSoC5/I2C_M.h"
 143              		.file 5 "CustomPrint.h"
 144              		.file 6 "Generated_Source\\PSoC5/core_cm3.h"