ARM GAS  C:\Users\simhj\AppData\Local\Temp\ccwvJh26.s 			page 1


   1              		.syntax unified
   2              		.cpu cortex-m3
   3              		.fpu softvfp
   4              		.eabi_attribute 20, 1
   5              		.eabi_attribute 21, 1
   6              		.eabi_attribute 23, 3
   7              		.eabi_attribute 24, 1
   8              		.eabi_attribute 25, 1
   9              		.eabi_attribute 26, 1
  10              		.eabi_attribute 30, 1
  11              		.eabi_attribute 34, 1
  12              		.eabi_attribute 18, 4
  13              		.thumb
  14              		.syntax unified
  15              		.file	"main.c"
  16              		.text
  17              	.Ltext0:
  18              		.cfi_sections	.debug_frame
  19              		.section	.text.UART_Rx_CT_Handeler,"ax",%progbits
  20              		.align	2
  21              		.global	UART_Rx_CT_Handeler
  22              		.thumb
  23              		.thumb_func
  24              		.type	UART_Rx_CT_Handeler, %function
  25              	UART_Rx_CT_Handeler:
  26              	.LFB64:
  27              		.file 1 "main.c"
   1:main.c        **** /* ========================================
   2:main.c        ****  *
   3:main.c        ****  * Copyright YOUR COMPANY, THE YEAR
   4:main.c        ****  * All Rights Reserved
   5:main.c        ****  * UNPUBLISHED, LICENSED SOFTWARE.
   6:main.c        ****  *
   7:main.c        ****  * CONFIDENTIAL AND PROPRIETARY INFORMATION
   8:main.c        ****  * WHICH IS THE PROPERTY OF your company.
   9:main.c        ****  *
  10:main.c        ****  * ========================================
  11:main.c        **** */
  12:main.c        **** #include "project.h"
  13:main.c        **** #include <stdint.h>
  14:main.c        **** #include "CustomPrint.h"
  15:main.c        **** 
  16:main.c        **** //interubt service rutines prototypes 
  17:main.c        **** CY_ISR_PROTO (UART_Rx_CT_Handeler);
  18:main.c        **** 
  19:main.c        **** int main(void)
  20:main.c        **** {
  21:main.c        ****     UART_CT_PutString("Program started!\r\n");
  22:main.c        ****     //interrubt enablers! 
  23:main.c        ****     CyGlobalIntEnable; /* Enable global interrupts. */
  24:main.c        ****     isr_UART_CT_StartEx(UART_Rx_CT_Handeler);
  25:main.c        ****     
  26:main.c        ****     //componet enables 
  27:main.c        ****     UART_CT_Start();
  28:main.c        ****     /* Place your initialization/startup code here (e.g. MyInst_Start()) */
  29:main.c        **** 
  30:main.c        ****     for(;;)
ARM GAS  C:\Users\simhj\AppData\Local\Temp\ccwvJh26.s 			page 2


  31:main.c        ****     {
  32:main.c        ****         uint8_t status;
  33:main.c        ****         status = I2C_M_MasterSendStart(0x48, 1); 
  34:main.c        ****         if (status == I2C_M_MSTR_NO_ERROR)
  35:main.c        ****         {
  36:main.c        ****             uint8_t b1 = I2C_M_MasterReadByte(I2C_M_ACK_DATA);
  37:main.c        ****             uint8_t b2 = I2C_M_MasterReadByte(I2C_M_NAK_DATA);
  38:main.c        ****             
  39:main.c        ****             I2C_M_MasterSendStop();
  40:main.c        ****             
  41:main.c        ****             uint16_t temp = ((b1 << 8) + b2);
  42:main.c        ****             // Convert to celcius
  43:main.c        ****             // Send to UART
  44:main.c        ****         }
  45:main.c        ****         else
  46:main.c        ****         {
  47:main.c        ****             PrintStringInt("Fejl: ", 9, status);
  48:main.c        ****             I2C_M_MasterSendStop();
  49:main.c        ****         }
  50:main.c        ****     }
  51:main.c        **** }
  52:main.c        **** 
  53:main.c        **** // interubt services rutines 
  54:main.c        **** 
  55:main.c        **** 
  56:main.c        **** CY_ISR (UART_Rx_CT_Handeler)
  57:main.c        **** {
  28              		.loc 1 57 0
  29              		.cfi_startproc
  30              		@ args = 0, pretend = 0, frame = 0
  31              		@ frame_needed = 0, uses_anonymous_args = 0
  32 0000 38B5     		push	{r3, r4, r5, lr}
  33              		.cfi_def_cfa_offset 16
  34              		.cfi_offset 3, -16
  35              		.cfi_offset 4, -12
  36              		.cfi_offset 5, -8
  37              		.cfi_offset 14, -4
  58:main.c        ****     uint8_t numberOfBytes = UART_CT_GetRxBufferSize();
  38              		.loc 1 58 0
  39 0002 FFF7FEFF 		bl	UART_CT_GetRxBufferSize
  40              	.LVL0:
  41 0006 0546     		mov	r5, r0
  42              	.LVL1:
  43              	.LBB2:
  59:main.c        ****     
  60:main.c        ****     for (uint8_t i = 0; i < numberOfBytes; i++)
  44              		.loc 1 60 0
  45 0008 0024     		movs	r4, #0
  46 000a 25E0     		b	.L2
  47              	.LVL2:
  48              	.L8:
  49              	.LBB3:
  61:main.c        ****     {
  62:main.c        ****         char c = UART_CT_GetChar();
  50              		.loc 1 62 0
  51 000c FFF7FEFF 		bl	UART_CT_GetChar
  52              	.LVL3:
ARM GAS  C:\Users\simhj\AppData\Local\Temp\ccwvJh26.s 			page 3


  63:main.c        ****         
  64:main.c        ****         // takes actions based on input. 
  65:main.c        ****         switch (c)
  53              		.loc 1 65 0
  54 0010 6928     		cmp	r0, #105
  55 0012 08D0     		beq	.L4
  56 0014 7428     		cmp	r0, #116
  57 0016 02D0     		beq	.L5
  58 0018 6628     		cmp	r0, #102
  59 001a 16D1     		bne	.L9
  60 001c 0CE0     		b	.L6
  61              	.L5:
  66:main.c        ****         {
  67:main.c        ****             case 't' :             
  68:main.c        ****             {
  69:main.c        ****                 UART_CT_PutString("test!\r\n");
  62              		.loc 1 69 0
  63 001e 1048     		ldr	r0, .L11
  64              	.LVL4:
  65 0020 FFF7FEFF 		bl	UART_CT_PutString
  66              	.LVL5:
  70:main.c        ****             }
  71:main.c        ****             break;
  67              		.loc 1 71 0
  68 0024 16E0     		b	.L7
  69              	.LVL6:
  70              	.L4:
  72:main.c        ****             case 'i' :             
  73:main.c        ****             {
  74:main.c        ****                 UART_CT_PutString("testing print int!\r\n");
  71              		.loc 1 74 0
  72 0026 0F48     		ldr	r0, .L11+4
  73              	.LVL7:
  74 0028 FFF7FEFF 		bl	UART_CT_PutString
  75              	.LVL8:
  75:main.c        ****                 PrintStringFloat("int", 3, 7);
  76              		.loc 1 75 0
  77 002c 0E4A     		ldr	r2, .L11+8
  78 002e 0321     		movs	r1, #3
  79 0030 0E48     		ldr	r0, .L11+12
  80 0032 FFF7FEFF 		bl	PrintStringFloat
  81              	.LVL9:
  76:main.c        ****             }
  77:main.c        ****             break;
  82              		.loc 1 77 0
  83 0036 0DE0     		b	.L7
  84              	.LVL10:
  85              	.L6:
  78:main.c        ****             case 'f' :             
  79:main.c        ****             {   
  80:main.c        ****                 UART_CT_PutString("test print float!\r\n");
  86              		.loc 1 80 0
  87 0038 0D48     		ldr	r0, .L11+16
  88              	.LVL11:
  89 003a FFF7FEFF 		bl	UART_CT_PutString
  90              	.LVL12:
  81:main.c        ****                 PrintStringFloat("float", 5, 3.6);
ARM GAS  C:\Users\simhj\AppData\Local\Temp\ccwvJh26.s 			page 4


  91              		.loc 1 81 0
  92 003e 0D4A     		ldr	r2, .L11+20
  93 0040 0521     		movs	r1, #5
  94 0042 0D48     		ldr	r0, .L11+24
  95 0044 FFF7FEFF 		bl	PrintStringFloat
  96              	.LVL13:
  82:main.c        ****             }
  83:main.c        ****             break;
  97              		.loc 1 83 0
  98 0048 04E0     		b	.L7
  99              	.LVL14:
 100              	.L9:
  84:main.c        ****             default:                
  85:main.c        ****             {
  86:main.c        ****                 UART_CT_PutChar(c);
 101              		.loc 1 86 0
 102 004a FFF7FEFF 		bl	UART_CT_PutChar
 103              	.LVL15:
  87:main.c        ****                 UART_CT_PutString("\r\n");
 104              		.loc 1 87 0
 105 004e 0B48     		ldr	r0, .L11+28
 106 0050 FFF7FEFF 		bl	UART_CT_PutString
 107              	.LVL16:
 108              	.L7:
 109              	.LBE3:
  60:main.c        ****     {
 110              		.loc 1 60 0 discriminator 2
 111 0054 0134     		adds	r4, r4, #1
 112              	.LVL17:
 113 0056 E4B2     		uxtb	r4, r4
 114              	.LVL18:
 115              	.L2:
  60:main.c        ****     {
 116              		.loc 1 60 0 is_stmt 0 discriminator 1
 117 0058 AC42     		cmp	r4, r5
 118 005a D7D3     		bcc	.L8
 119              	.LBE2:
  88:main.c        ****             }
  89:main.c        ****             break;
  90:main.c        ****         }
  91:main.c        ****     }
  92:main.c        **** } // end of uart handeler
 120              		.loc 1 92 0 is_stmt 1
 121 005c 38BD     		pop	{r3, r4, r5, pc}
 122              	.LVL19:
 123              	.L12:
 124 005e 00BF     		.align	2
 125              	.L11:
 126 0060 00000000 		.word	.LC0
 127 0064 08000000 		.word	.LC1
 128 0068 0000E040 		.word	1088421888
 129 006c 20000000 		.word	.LC2
 130 0070 24000000 		.word	.LC3
 131 0074 66666640 		.word	1080452710
 132 0078 38000000 		.word	.LC4
 133 007c 40000000 		.word	.LC5
 134              		.cfi_endproc
ARM GAS  C:\Users\simhj\AppData\Local\Temp\ccwvJh26.s 			page 5


 135              	.LFE64:
 136              		.size	UART_Rx_CT_Handeler, .-UART_Rx_CT_Handeler
 137              		.section	.text.main,"ax",%progbits
 138              		.align	2
 139              		.global	main
 140              		.thumb
 141              		.thumb_func
 142              		.type	main, %function
 143              	main:
 144              	.LFB63:
  20:main.c        ****     UART_CT_PutString("Program started!\r\n");
 145              		.loc 1 20 0
 146              		.cfi_startproc
 147              		@ args = 0, pretend = 0, frame = 0
 148              		@ frame_needed = 0, uses_anonymous_args = 0
 149 0000 08B5     		push	{r3, lr}
 150              		.cfi_def_cfa_offset 8
 151              		.cfi_offset 3, -8
 152              		.cfi_offset 14, -4
  21:main.c        ****     //interrubt enablers! 
 153              		.loc 1 21 0
 154 0002 0F48     		ldr	r0, .L18
 155 0004 FFF7FEFF 		bl	UART_CT_PutString
 156              	.LVL20:
  23:main.c        ****     isr_UART_CT_StartEx(UART_Rx_CT_Handeler);
 157              		.loc 1 23 0
 158              		.syntax unified
 159              	@ 23 "main.c" 1
 160 0008 62B6     		CPSIE   i
 161              	@ 0 "" 2
  24:main.c        ****     
 162              		.loc 1 24 0
 163              		.thumb
 164              		.syntax unified
 165 000a 0E48     		ldr	r0, .L18+4
 166 000c FFF7FEFF 		bl	isr_UART_CT_StartEx
 167              	.LVL21:
  27:main.c        ****     /* Place your initialization/startup code here (e.g. MyInst_Start()) */
 168              		.loc 1 27 0
 169 0010 FFF7FEFF 		bl	UART_CT_Start
 170              	.LVL22:
 171              	.L14:
 172              	.LBB4:
  33:main.c        ****         if (status == I2C_M_MSTR_NO_ERROR)
 173              		.loc 1 33 0
 174 0014 0121     		movs	r1, #1
 175 0016 4820     		movs	r0, #72
 176 0018 FFF7FEFF 		bl	I2C_M_MasterSendStart
 177              	.LVL23:
  34:main.c        ****         {
 178              		.loc 1 34 0
 179 001c 0246     		mov	r2, r0
 180 001e 40B9     		cbnz	r0, .L15
 181              	.LBB5:
  36:main.c        ****             uint8_t b2 = I2C_M_MasterReadByte(I2C_M_NAK_DATA);
 182              		.loc 1 36 0
 183 0020 0120     		movs	r0, #1
ARM GAS  C:\Users\simhj\AppData\Local\Temp\ccwvJh26.s 			page 6


 184              	.LVL24:
 185 0022 FFF7FEFF 		bl	I2C_M_MasterReadByte
 186              	.LVL25:
  37:main.c        ****             
 187              		.loc 1 37 0
 188 0026 0020     		movs	r0, #0
 189 0028 FFF7FEFF 		bl	I2C_M_MasterReadByte
 190              	.LVL26:
  39:main.c        ****             
 191              		.loc 1 39 0
 192 002c FFF7FEFF 		bl	I2C_M_MasterSendStop
 193              	.LVL27:
 194              	.LBE5:
 195 0030 F0E7     		b	.L14
 196              	.LVL28:
 197              	.L15:
  47:main.c        ****             I2C_M_MasterSendStop();
 198              		.loc 1 47 0
 199 0032 0921     		movs	r1, #9
 200 0034 0448     		ldr	r0, .L18+8
 201              	.LVL29:
 202 0036 FFF7FEFF 		bl	PrintStringInt
 203              	.LVL30:
  48:main.c        ****         }
 204              		.loc 1 48 0
 205 003a FFF7FEFF 		bl	I2C_M_MasterSendStop
 206              	.LVL31:
 207 003e E9E7     		b	.L14
 208              	.L19:
 209              		.align	2
 210              	.L18:
 211 0040 44000000 		.word	.LC6
 212 0044 00000000 		.word	UART_Rx_CT_Handeler
 213 0048 58000000 		.word	.LC7
 214              	.LBE4:
 215              		.cfi_endproc
 216              	.LFE63:
 217              		.size	main, .-main
 218              		.section	.rodata.str1.4,"aMS",%progbits,1
 219              		.align	2
 220              	.LC0:
 221 0000 74657374 		.ascii	"test!\015\012\000"
 221      210D0A00 
 222              	.LC1:
 223 0008 74657374 		.ascii	"testing print int!\015\012\000"
 223      696E6720 
 223      7072696E 
 223      7420696E 
 223      74210D0A 
 224 001d 000000   		.space	3
 225              	.LC2:
 226 0020 696E7400 		.ascii	"int\000"
 227              	.LC3:
 228 0024 74657374 		.ascii	"test print float!\015\012\000"
 228      20707269 
 228      6E742066 
 228      6C6F6174 
ARM GAS  C:\Users\simhj\AppData\Local\Temp\ccwvJh26.s 			page 7


 228      210D0A00 
 229              	.LC4:
 230 0038 666C6F61 		.ascii	"float\000"
 230      7400
 231 003e 0000     		.space	2
 232              	.LC5:
 233 0040 0D0A00   		.ascii	"\015\012\000"
 234 0043 00       		.space	1
 235              	.LC6:
 236 0044 50726F67 		.ascii	"Program started!\015\012\000"
 236      72616D20 
 236      73746172 
 236      74656421 
 236      0D0A00
 237 0057 00       		.space	1
 238              	.LC7:
 239 0058 46656A6C 		.ascii	"Fejl: \000"
 239      3A2000
 240              		.text
 241              	.Letext0:
 242              		.file 2 "s:\\program files (x86)\\cypress\\psoc creator\\4.4\\psoc creator\\import\\gnu\\arm\\5.4.
 243              		.file 3 "s:\\program files (x86)\\cypress\\psoc creator\\4.4\\psoc creator\\import\\gnu\\arm\\5.4.
 244              		.file 4 "Generated_Source\\PSoC5/UART_CT.h"
 245              		.file 5 "CustomPrint.h"
 246              		.file 6 "Generated_Source\\PSoC5/I2C_M.h"
 247              		.file 7 "Generated_Source\\PSoC5/isr_UART_CT.h"
 248              		.file 8 "Generated_Source\\PSoC5/core_cm3.h"