ARM GAS  C:\Users\simhj\AppData\Local\Temp\ccqJGhec.s 			page 1


   1              		.syntax unified
   2              		.cpu cortex-m3
   3              		.fpu softvfp
   4              		.eabi_attribute 20, 1
   5              		.eabi_attribute 21, 1
   6              		.eabi_attribute 23, 3
   7              		.eabi_attribute 24, 1
   8              		.eabi_attribute 25, 1
   9              		.eabi_attribute 26, 1
  10              		.eabi_attribute 30, 1
  11              		.eabi_attribute 34, 1
  12              		.eabi_attribute 18, 4
  13              		.thumb
  14              		.syntax unified
  15              		.file	"main.c"
  16              		.text
  17              	.Ltext0:
  18              		.cfi_sections	.debug_frame
  19              		.section	.text.SPI_Rx_Handler,"ax",%progbits
  20              		.align	2
  21              		.global	SPI_Rx_Handler
  22              		.thumb
  23              		.thumb_func
  24              		.type	SPI_Rx_Handler, %function
  25              	SPI_Rx_Handler:
  26              	.LFB64:
  27              		.file 1 "main.c"
   1:main.c        **** /* ========================================
   2:main.c        ****  *
   3:main.c        ****  * Copyright YOUR COMPANY, THE YEAR
   4:main.c        ****  * All Rights Reserved
   5:main.c        ****  * UNPUBLISHED, LICENSED SOFTWARE.
   6:main.c        ****  *
   7:main.c        ****  * CONFIDENTIAL AND PROPRIETARY INFORMATION
   8:main.c        ****  * WHICH IS THE PROPERTY OF your company.
   9:main.c        ****  *
  10:main.c        ****  * ========================================
  11:main.c        **** */
  12:main.c        **** #include "project.h"
  13:main.c        **** #include "CustomPrint.h"
  14:main.c        **** 
  15:main.c        **** CY_ISR_PROTO (SPI_Rx_Handler);
  16:main.c        **** 
  17:main.c        **** uint8_t DataReceived;
  18:main.c        **** 
  19:main.c        **** int main(void)
  20:main.c        **** {
  21:main.c        ****     CyGlobalIntEnable; /* Enable global interrupts. */
  22:main.c        ****     UART_CT_Start();
  23:main.c        ****     SPI_S_Start();
  24:main.c        ****     isr_SPI_rx_StartEx(SPI_Rx_Handler);
  25:main.c        ****     
  26:main.c        ****     /* Place your initialization/startup code here (e.g. MyInst_Start()) */
  27:main.c        ****     UART_CT_PutString("Program running\r\n");
  28:main.c        ****     
  29:main.c        ****     for(;;)
  30:main.c        ****     {
ARM GAS  C:\Users\simhj\AppData\Local\Temp\ccqJGhec.s 			page 2


  31:main.c        ****         if (DataReceived == 'l')
  32:main.c        ****         {
  33:main.c        ****              Pin_LED1_Write(1);
  34:main.c        ****         }
  35:main.c        ****         if (DataReceived == 'o')
  36:main.c        ****         {
  37:main.c        ****              Pin_LED1_Write(0);
  38:main.c        ****         }
  39:main.c        ****     }
  40:main.c        **** }
  41:main.c        **** 
  42:main.c        **** CY_ISR (SPI_Rx_Handler)
  43:main.c        **** {
  28              		.loc 1 43 0
  29              		.cfi_startproc
  30              		@ args = 0, pretend = 0, frame = 0
  31              		@ frame_needed = 0, uses_anonymous_args = 0
  32 0000 08B5     		push	{r3, lr}
  33              		.cfi_def_cfa_offset 8
  34              		.cfi_offset 3, -8
  35              		.cfi_offset 14, -4
  44:main.c        ****     DataReceived = SPI_S_ReadRxData();
  36              		.loc 1 44 0
  37 0002 FFF7FEFF 		bl	SPI_S_ReadRxData
  38              	.LVL0:
  39 0006 024B     		ldr	r3, .L3
  40 0008 1870     		strb	r0, [r3]
  45:main.c        ****     UART_CT_PutChar(DataReceived);
  41              		.loc 1 45 0
  42 000a FFF7FEFF 		bl	UART_CT_PutChar
  43              	.LVL1:
  44 000e 08BD     		pop	{r3, pc}
  45              	.L4:
  46              		.align	2
  47              	.L3:
  48 0010 00000000 		.word	DataReceived
  49              		.cfi_endproc
  50              	.LFE64:
  51              		.size	SPI_Rx_Handler, .-SPI_Rx_Handler
  52              		.section	.text.main,"ax",%progbits
  53              		.align	2
  54              		.global	main
  55              		.thumb
  56              		.thumb_func
  57              		.type	main, %function
  58              	main:
  59              	.LFB63:
  20:main.c        ****     CyGlobalIntEnable; /* Enable global interrupts. */
  60              		.loc 1 20 0
  61              		.cfi_startproc
  62              		@ Volatile: function does not return.
  63              		@ args = 0, pretend = 0, frame = 0
  64              		@ frame_needed = 0, uses_anonymous_args = 0
  65 0000 08B5     		push	{r3, lr}
  66              		.cfi_def_cfa_offset 8
  67              		.cfi_offset 3, -8
  68              		.cfi_offset 14, -4
ARM GAS  C:\Users\simhj\AppData\Local\Temp\ccqJGhec.s 			page 3


  21:main.c        ****     UART_CT_Start();
  69              		.loc 1 21 0
  70              		.syntax unified
  71              	@ 21 "main.c" 1
  72 0002 62B6     		CPSIE   i
  73              	@ 0 "" 2
  22:main.c        ****     SPI_S_Start();
  74              		.loc 1 22 0
  75              		.thumb
  76              		.syntax unified
  77 0004 FFF7FEFF 		bl	UART_CT_Start
  78              	.LVL2:
  23:main.c        ****     isr_SPI_rx_StartEx(SPI_Rx_Handler);
  79              		.loc 1 23 0
  80 0008 FFF7FEFF 		bl	SPI_S_Start
  81              	.LVL3:
  24:main.c        ****     
  82              		.loc 1 24 0
  83 000c 0A48     		ldr	r0, .L10
  84 000e FFF7FEFF 		bl	isr_SPI_rx_StartEx
  85              	.LVL4:
  27:main.c        ****     
  86              		.loc 1 27 0
  87 0012 0A48     		ldr	r0, .L10+4
  88 0014 FFF7FEFF 		bl	UART_CT_PutString
  89              	.LVL5:
  90              	.L7:
  31:main.c        ****         {
  91              		.loc 1 31 0
  92 0018 094B     		ldr	r3, .L10+8
  93 001a 1B78     		ldrb	r3, [r3]	@ zero_extendqisi2
  94 001c 6C2B     		cmp	r3, #108
  95 001e 02D1     		bne	.L6
  33:main.c        ****         }
  96              		.loc 1 33 0
  97 0020 0120     		movs	r0, #1
  98 0022 FFF7FEFF 		bl	Pin_LED1_Write
  99              	.LVL6:
 100              	.L6:
  35:main.c        ****         {
 101              		.loc 1 35 0
 102 0026 064B     		ldr	r3, .L10+8
 103 0028 1B78     		ldrb	r3, [r3]	@ zero_extendqisi2
 104 002a 6F2B     		cmp	r3, #111
 105 002c F4D1     		bne	.L7
  37:main.c        ****         }
 106              		.loc 1 37 0
 107 002e 0020     		movs	r0, #0
 108 0030 FFF7FEFF 		bl	Pin_LED1_Write
 109              	.LVL7:
 110 0034 F0E7     		b	.L7
 111              	.L11:
 112 0036 00BF     		.align	2
 113              	.L10:
 114 0038 00000000 		.word	SPI_Rx_Handler
 115 003c 00000000 		.word	.LC0
 116 0040 00000000 		.word	DataReceived
ARM GAS  C:\Users\simhj\AppData\Local\Temp\ccqJGhec.s 			page 4


 117              		.cfi_endproc
 118              	.LFE63:
 119              		.size	main, .-main
 120              		.comm	DataReceived,1,1
 121              		.section	.rodata.str1.4,"aMS",%progbits,1
 122              		.align	2
 123              	.LC0:
 124 0000 50726F67 		.ascii	"Program running\015\012\000"
 124      72616D20 
 124      72756E6E 
 124      696E670D 
 124      0A00
 125              		.text
 126              	.Letext0:
 127              		.file 2 "s:\\program files (x86)\\cypress\\psoc creator\\4.4\\psoc creator\\import\\gnu\\arm\\5.4.
 128              		.file 3 "s:\\program files (x86)\\cypress\\psoc creator\\4.4\\psoc creator\\import\\gnu\\arm\\5.4.
 129              		.file 4 "Generated_Source\\PSoC5/core_cm3.h"
 130              		.file 5 "Generated_Source\\PSoC5/SPI_S.h"
 131              		.file 6 "Generated_Source\\PSoC5/UART_CT.h"
 132              		.file 7 "Generated_Source\\PSoC5/isr_SPI_rx.h"
 133              		.file 8 "Generated_Source\\PSoC5/Pin_LED1.h"